target datalayout = "e-m:e-p270:32:32-p271:32:32-p272:64:64-i64:64-i128:128-f80:128-n8:16:32:64-S128"
target triple = "x86_64-pc-linux-gnu"

%"class.arrow::internal::FloatToStringFormatter" = type { %"class.std::unique_ptr" }
%"class.std::unique_ptr" = type { %"struct.std::__uniq_ptr_data" }
%"struct.std::__uniq_ptr_data" = type { %"class.std::__uniq_ptr_impl" }
%"class.std::__uniq_ptr_impl" = type { %"class.std::tuple" }
%"class.std::tuple" = type { %"struct.std::_Tuple_impl" }
%"struct.std::_Tuple_impl" = type { %"struct.std::_Head_base.1" }
%"struct.std::_Head_base.1" = type { ptr }
%"struct.arrow::internal::FloatToStringFormatter::Impl" = type { %"class.arrow_vendored::double_conversion::DoubleToStringConverter" }
%"class.arrow_vendored::double_conversion::DoubleToStringConverter" = type { i32, ptr, ptr, i8, i32, i32, i32, i32, i32 }

; Function Attrs: mustprogress nounwind uwtable
define linkonce_odr noundef nonnull align 8 dereferenceable(8) ptr @_ZNSt10_Head_baseILm0EPN5arrow8internal22FloatToStringFormatter4ImplELb0EE7_M_headERS5_(ptr noundef nonnull align 8 dereferenceable(8) %0) #3 comdat align 2 {
  %2 = alloca ptr, align 8
  store ptr %0, ptr %2, align 8, !tbaa !78
  %3 = load ptr, ptr %2, align 8, !tbaa !78
  %4 = getelementptr inbounds nuw %"struct.std::_Head_base.1", ptr %3, i32 0, i32 0
  ret ptr %4
}

; Function Attrs: mustprogress nounwind uwtable
define linkonce_odr noundef nonnull align 8 dereferenceable(8) ptr @_ZNSt11_Tuple_implILm0EJPN5arrow8internal22FloatToStringFormatter4ImplESt14default_deleteIS3_EEE7_M_headERS7_(ptr noundef nonnull align 8 dereferenceable(8) %0) #3 comdat align 2 {
  %2 = alloca ptr, align 8
  store ptr %0, ptr %2, align 8, !tbaa !74
  %3 = load ptr, ptr %2, align 8, !tbaa !74
  %4 = call noundef nonnull align 8 dereferenceable(8) ptr @_ZNSt10_Head_baseILm0EPN5arrow8internal22FloatToStringFormatter4ImplELb0EE7_M_headERS5_(ptr noundef nonnull align 8 dereferenceable(8) %3) #9
  ret ptr %4
}

; Function Attrs: mustprogress nounwind uwtable
define linkonce_odr void @_ZNSt10_Head_baseILm1ESt14default_deleteIN5arrow8internal22FloatToStringFormatter4ImplEELb1EEC2Ev(ptr noundef nonnull align 1 dereferenceable(1) %0) unnamed_addr #3 comdat align 2 {
  %2 = alloca ptr, align 8
  store ptr %0, ptr %2, align 8, !tbaa !82
  ret void
}

; Function Attrs: mustprogress nounwind uwtable
define linkonce_odr noundef nonnull align 8 dereferenceable(8) ptr @_ZSt12__get_helperILm0EPN5arrow8internal22FloatToStringFormatter4ImplEJSt14default_deleteIS3_EEERT0_RSt11_Tuple_implIXT_EJS7_DpT1_EE(ptr noundef nonnull align 8 dereferenceable(8) %0) #3 comdat {
  %2 = alloca ptr, align 8
  store ptr %0, ptr %2, align 8, !tbaa !74
  %3 = load ptr, ptr %2, align 8, !tbaa !74
  %4 = call noundef nonnull align 8 dereferenceable(8) ptr @_ZNSt11_Tuple_implILm0EJPN5arrow8internal22FloatToStringFormatter4ImplESt14default_deleteIS3_EEE7_M_headERS7_(ptr noundef nonnull align 8 dereferenceable(8) %3) #9
  ret ptr %4
}

; Function Attrs: mustprogress nounwind uwtable
define linkonce_odr void @_ZNSt10_Head_baseILm0EPN5arrow8internal22FloatToStringFormatter4ImplELb0EEC2Ev(ptr noundef nonnull align 8 dereferenceable(8) %0) unnamed_addr #3 comdat align 2 {
  %2 = alloca ptr, align 8
  store ptr %0, ptr %2, align 8, !tbaa !78
  %3 = load ptr, ptr %2, align 8
  %4 = getelementptr inbounds nuw %"struct.std::_Head_base.1", ptr %3, i32 0, i32 0
  store ptr null, ptr %4, align 8, !tbaa !80
  ret void
}

; Function Attrs: mustprogress uwtable
define linkonce_odr void @_ZNSt11_Tuple_implILm1EJSt14default_deleteIN5arrow8internal22FloatToStringFormatter4ImplEEEEC2Ev(ptr noundef nonnull align 1 dereferenceable(1) %0) unnamed_addr #0 comdat align 2 {
  %2 = alloca ptr, align 8
  store ptr %0, ptr %2, align 8, !tbaa !76
  %3 = load ptr, ptr %2, align 8
  call void @_ZNSt10_Head_baseILm1ESt14default_deleteIN5arrow8internal22FloatToStringFormatter4ImplEELb1EEC2Ev(ptr noundef nonnull align 1 dereferenceable(1) %3)
  ret void
}

; Function Attrs: mustprogress nounwind uwtable
define linkonce_odr noundef nonnull align 8 dereferenceable(8) ptr @_ZSt3getILm0EJPN5arrow8internal22FloatToStringFormatter4ImplESt14default_deleteIS3_EEERNSt13tuple_elementIXT_ESt5tupleIJDpT0_EEE4typeERSB_(ptr noundef nonnull align 8 dereferenceable(8) %0) #3 comdat {
  %2 = alloca ptr, align 8
  store ptr %0, ptr %2, align 8, !tbaa !72
  %3 = load ptr, ptr %2, align 8, !tbaa !72
  %4 = call noundef nonnull align 8 dereferenceable(8) ptr @_ZSt12__get_helperILm0EPN5arrow8internal22FloatToStringFormatter4ImplEJSt14default_deleteIS3_EEERT0_RSt11_Tuple_implIXT_EJS7_DpT1_EE(ptr noundef nonnull align 8 dereferenceable(8) %3) #9
  ret ptr %4
}

; Function Attrs: mustprogress uwtable
define linkonce_odr void @_ZNSt11_Tuple_implILm0EJPN5arrow8internal22FloatToStringFormatter4ImplESt14default_deleteIS3_EEEC2Ev(ptr noundef nonnull align 8 dereferenceable(8) %0) unnamed_addr #0 comdat align 2 {
  %2 = alloca ptr, align 8
  store ptr %0, ptr %2, align 8, !tbaa !74
  %3 = load ptr, ptr %2, align 8
  call void @_ZNSt11_Tuple_implILm1EJSt14default_deleteIN5arrow8internal22FloatToStringFormatter4ImplEEEEC2Ev(ptr noundef nonnull align 1 dereferenceable(1) %3)
  call void @_ZNSt10_Head_baseILm0EPN5arrow8internal22FloatToStringFormatter4ImplELb0EEC2Ev(ptr noundef nonnull align 8 dereferenceable(8) %3)
  ret void
}

; Function Attrs: mustprogress nounwind uwtable
define linkonce_odr noundef nonnull align 8 dereferenceable(8) ptr @_ZNSt15__uniq_ptr_implIN5arrow8internal22FloatToStringFormatter4ImplESt14default_deleteIS3_EE6_M_ptrEv(ptr noundef nonnull align 8 dereferenceable(8) %0) #3 comdat align 2 {
  %2 = alloca ptr, align 8
  store ptr %0, ptr %2, align 8, !tbaa !70
  %3 = load ptr, ptr %2, align 8
  %4 = getelementptr inbounds nuw %"class.std::__uniq_ptr_impl", ptr %3, i32 0, i32 0
  %5 = call noundef nonnull align 8 dereferenceable(8) ptr @_ZSt3getILm0EJPN5arrow8internal22FloatToStringFormatter4ImplESt14default_deleteIS3_EEERNSt13tuple_elementIXT_ESt5tupleIJDpT0_EEE4typeERSB_(ptr noundef nonnull align 8 dereferenceable(8) %4) #9
  ret ptr %5
}

; Function Attrs: mustprogress nounwind uwtable
define linkonce_odr void @_ZNSt5tupleIJPN5arrow8internal22FloatToStringFormatter4ImplESt14default_deleteIS3_EEEC2ILb1ETnNSt9enable_ifIXclsr17_TupleConstraintsIXT_ES4_S6_EE37__is_implicitly_default_constructibleEEbE4typeELb1EEEv(ptr noundef nonnull align 8 dereferenceable(8) %0) unnamed_addr #3 comdat align 2 personality ptr @__gxx_personality_v0 {
  %2 = alloca ptr, align 8
  store ptr %0, ptr %2, align 8, !tbaa !72
  %3 = load ptr, ptr %2, align 8
  invoke void @_ZNSt11_Tuple_implILm0EJPN5arrow8internal22FloatToStringFormatter4ImplESt14default_deleteIS3_EEEC2Ev(ptr noundef nonnull align 8 dereferenceable(8) %3)
          to label %4 unwind label %5

4:                                                ; preds = %1
  ret void

5:                                                ; preds = %1
  %6 = landingpad { ptr, i32 }
          catch ptr null
  %7 = extractvalue { ptr, i32 } %6, 0
  call void @__clang_call_terminate(ptr %7) #11
  unreachable
}

; Function Attrs: mustprogress nounwind uwtable
define linkonce_odr void @_ZNSt15__uniq_ptr_implIN5arrow8internal22FloatToStringFormatter4ImplESt14default_deleteIS3_EEC2EPS3_(ptr noundef nonnull align 8 dereferenceable(8) %0, ptr noundef %1) unnamed_addr #3 comdat align 2 {
  %3 = alloca ptr, align 8
  %4 = alloca ptr, align 8
  store ptr %0, ptr %3, align 8, !tbaa !70
  store ptr %1, ptr %4, align 8, !tbaa !8
  %5 = load ptr, ptr %3, align 8
  %6 = getelementptr inbounds nuw %"class.std::__uniq_ptr_impl", ptr %5, i32 0, i32 0
  call void @_ZNSt5tupleIJPN5arrow8internal22FloatToStringFormatter4ImplESt14default_deleteIS3_EEEC2ILb1ETnNSt9enable_ifIXclsr17_TupleConstraintsIXT_ES4_S6_EE37__is_implicitly_default_constructibleEEbE4typeELb1EEEv(ptr noundef nonnull align 8 dereferenceable(8) %6) #9
  %7 = load ptr, ptr %4, align 8, !tbaa !8
  %8 = call noundef nonnull align 8 dereferenceable(8) ptr @_ZNSt15__uniq_ptr_implIN5arrow8internal22FloatToStringFormatter4ImplESt14default_deleteIS3_EE6_M_ptrEv(ptr noundef nonnull align 8 dereferenceable(8) %5) #9
  store ptr %7, ptr %8, align 8, !tbaa !8
  ret void
}

; Function Attrs: noinline noreturn nounwind uwtable
define linkonce_odr hidden void @__clang_call_terminate(ptr noundef %0) #6 comdat {
  %2 = call ptr @__cxa_begin_catch(ptr %0) #9
  call void @_ZSt9terminatev() #11
  unreachable
}

; Function Attrs: inlinehint mustprogress uwtable
define linkonce_odr void @_ZNSt15__uniq_ptr_dataIN5arrow8internal22FloatToStringFormatter4ImplESt14default_deleteIS3_ELb1ELb1EECI2St15__uniq_ptr_implIS3_S5_EEPS3_(ptr noundef nonnull align 8 dereferenceable(8) %0, ptr noundef %1) unnamed_addr #7 comdat align 2 {
  %3 = alloca ptr, align 8
  %4 = alloca ptr, align 8
  store ptr %0, ptr %3, align 8, !tbaa !68
  store ptr %1, ptr %4, align 8, !tbaa !8
  %5 = load ptr, ptr %3, align 8
  %6 = load ptr, ptr %4, align 8, !tbaa !8
  call void @_ZNSt15__uniq_ptr_implIN5arrow8internal22FloatToStringFormatter4ImplESt14default_deleteIS3_EEC2EPS3_(ptr noundef nonnull align 8 dereferenceable(8) %5, ptr noundef %6)
  ret void
}

; Function Attrs: mustprogress nounwind uwtable
define linkonce_odr void @_ZN14arrow_vendored17double_conversion23DoubleToStringConverterC2EiPKcS3_ciiiii(ptr noundef nonnull align 8 dereferenceable(48) %0, i32 noundef %1, ptr noundef %2, ptr noundef %3, i8 noundef signext %4, i32 noundef %5, i32 noundef %6, i32 noundef %7, i32 noundef %8, i32 noundef %9) unnamed_addr #3 comdat align 2 {
  %11 = alloca ptr, align 8
  %12 = alloca i32, align 4
  %13 = alloca ptr, align 8
  %14 = alloca ptr, align 8
  %15 = alloca i8, align 1
  %16 = alloca i32, align 4
  %17 = alloca i32, align 4
  %18 = alloca i32, align 4
  %19 = alloca i32, align 4
  %20 = alloca i32, align 4
  store ptr %0, ptr %11, align 8, !tbaa !34
  store i32 %1, ptr %12, align 4, !tbaa !12
  store ptr %2, ptr %13, align 8, !tbaa !14
  store ptr %3, ptr %14, align 8, !tbaa !14
  store i8 %4, ptr %15, align 1, !tbaa !16
  store i32 %5, ptr %16, align 4, !tbaa !12
  store i32 %6, ptr %17, align 4, !tbaa !12
  store i32 %7, ptr %18, align 4, !tbaa !12
  store i32 %8, ptr %19, align 4, !tbaa !12
  store i32 %9, ptr %20, align 4, !tbaa !12
  %21 = load ptr, ptr %11, align 8
  %22 = getelementptr inbounds nuw %"class.arrow_vendored::double_conversion::DoubleToStringConverter", ptr %21, i32 0, i32 0
  %23 = load i32, ptr %12, align 4, !tbaa !12
  store i32 %23, ptr %22, align 8, !tbaa !50
  %24 = getelementptr inbounds nuw %"class.arrow_vendored::double_conversion::DoubleToStringConverter", ptr %21, i32 0, i32 1
  %25 = load ptr, ptr %13, align 8, !tbaa !14
  store ptr %25, ptr %24, align 8, !tbaa !52
  %26 = getelementptr inbounds nuw %"class.arrow_vendored::double_conversion::DoubleToStringConverter", ptr %21, i32 0, i32 2
  %27 = load ptr, ptr %14, align 8, !tbaa !14
  store ptr %27, ptr %26, align 8, !tbaa !53
  %28 = getelementptr inbounds nuw %"class.arrow_vendored::double_conversion::DoubleToStringConverter", ptr %21, i32 0, i32 3
  %29 = load i8, ptr %15, align 1, !tbaa !16
  store i8 %29, ptr %28, align 8, !tbaa !54
  %30 = getelementptr inbounds nuw %"class.arrow_vendored::double_conversion::DoubleToStringConverter", ptr %21, i32 0, i32 4
  %31 = load i32, ptr %16, align 4, !tbaa !12
  store i32 %31, ptr %30, align 4, !tbaa !55
  %32 = getelementptr inbounds nuw %"class.arrow_vendored::double_conversion::DoubleToStringConverter", ptr %21, i32 0, i32 5
  %33 = load i32, ptr %17, align 4, !tbaa !12
  store i32 %33, ptr %32, align 8, !tbaa !56
  %34 = getelementptr inbounds nuw %"class.arrow_vendored::double_conversion::DoubleToStringConverter", ptr %21, i32 0, i32 6
  %35 = load i32, ptr %18, align 4, !tbaa !12
  store i32 %35, ptr %34, align 4, !tbaa !57
  %36 = getelementptr inbounds nuw %"class.arrow_vendored::double_conversion::DoubleToStringConverter", ptr %21, i32 0, i32 7
  %37 = load i32, ptr %19, align 4, !tbaa !12
  store i32 %37, ptr %36, align 8, !tbaa !58
  %38 = getelementptr inbounds nuw %"class.arrow_vendored::double_conversion::DoubleToStringConverter", ptr %21, i32 0, i32 8
  %39 = load i32, ptr %20, align 4, !tbaa !12
  store i32 %39, ptr %38, align 4, !tbaa !59
  ret void
}

; Function Attrs: mustprogress nounwind uwtable
define linkonce_odr void @_ZNSt10unique_ptrIN5arrow8internal22FloatToStringFormatter4ImplESt14default_deleteIS3_EEC2IS5_vEEPS3_(ptr noundef nonnull align 8 dereferenceable(8) %0, ptr noundef %1) unnamed_addr #3 comdat align 2 personality ptr @__gxx_personality_v0 {
  %3 = alloca ptr, align 8
  %4 = alloca ptr, align 8
  store ptr %0, ptr %3, align 8, !tbaa !10
  store ptr %1, ptr %4, align 8, !tbaa !8
  %5 = load ptr, ptr %3, align 8
  %6 = getelementptr inbounds nuw %"class.std::unique_ptr", ptr %5, i32 0, i32 0
  %7 = load ptr, ptr %4, align 8, !tbaa !8
  invoke void @_ZNSt15__uniq_ptr_dataIN5arrow8internal22FloatToStringFormatter4ImplESt14default_deleteIS3_ELb1ELb1EECI2St15__uniq_ptr_implIS3_S5_EEPS3_(ptr noundef nonnull align 8 dereferenceable(8) %6, ptr noundef %7)
          to label %8 unwind label %9

8:                                                ; preds = %2
  ret void

9:                                                ; preds = %2
  %10 = landingpad { ptr, i32 }
          catch ptr null
  %11 = extractvalue { ptr, i32 } %10, 0
  call void @__clang_call_terminate(ptr %11) #11
  unreachable
}

; Function Attrs: mustprogress uwtable
define linkonce_odr void @_ZN5arrow8internal22FloatToStringFormatter4ImplC2EiPKcS4_ciiii(ptr noundef nonnull align 8 dereferenceable(48) %0, i32 noundef %1, ptr noundef %2, ptr noundef %3, i8 noundef signext %4, i32 noundef %5, i32 noundef %6, i32 noundef %7, i32 noundef %8) unnamed_addr #0 comdat align 2 {
  %10 = alloca ptr, align 8
  %11 = alloca i32, align 4
  %12 = alloca ptr, align 8
  %13 = alloca ptr, align 8
  %14 = alloca i8, align 1
  %15 = alloca i32, align 4
  %16 = alloca i32, align 4
  %17 = alloca i32, align 4
  %18 = alloca i32, align 4
  store ptr %0, ptr %10, align 8, !tbaa !8
  store i32 %1, ptr %11, align 4, !tbaa !12
  store ptr %2, ptr %12, align 8, !tbaa !14
  store ptr %3, ptr %13, align 8, !tbaa !14
  store i8 %4, ptr %14, align 1, !tbaa !16
  store i32 %5, ptr %15, align 4, !tbaa !12
  store i32 %6, ptr %16, align 4, !tbaa !12
  store i32 %7, ptr %17, align 4, !tbaa !12
  store i32 %8, ptr %18, align 4, !tbaa !12
  %19 = load ptr, ptr %10, align 8
  %20 = getelementptr inbounds nuw %"struct.arrow::internal::FloatToStringFormatter::Impl", ptr %19, i32 0, i32 0
  %21 = load i32, ptr %11, align 4, !tbaa !12
  %22 = load ptr, ptr %12, align 8, !tbaa !14
  %23 = load ptr, ptr %13, align 8, !tbaa !14
  %24 = load i8, ptr %14, align 1, !tbaa !16
  %25 = load i32, ptr %15, align 4, !tbaa !12
  %26 = load i32, ptr %16, align 4, !tbaa !12
  %27 = load i32, ptr %17, align 4, !tbaa !12
  %28 = load i32, ptr %18, align 4, !tbaa !12
  call void @_ZN14arrow_vendored17double_conversion23DoubleToStringConverterC2EiPKcS3_ciiiii(ptr noundef nonnull align 8 dereferenceable(48) %20, i32 noundef %21, ptr noundef %22, ptr noundef %23, i8 noundef signext %24, i32 noundef %25, i32 noundef %26, i32 noundef %27, i32 noundef %28, i32 noundef 0)
  ret void
}

; Function Attrs: mustprogress uwtable
define void @_ZN5arrow8internal22FloatToStringFormatterC2EiPKcS3_ciiii(ptr noundef nonnull align 8 dereferenceable(8) %0, i32 noundef %1, ptr noundef %2, ptr noundef %3, i8 noundef signext %4, i32 noundef %5, i32 noundef %6, i32 noundef %7, i32 noundef %8) unnamed_addr #0 align 2 personality ptr @__gxx_personality_v0 {
  %10 = alloca ptr, align 8
  %11 = alloca i32, align 4
  %12 = alloca ptr, align 8
  %13 = alloca ptr, align 8
  %14 = alloca i8, align 1
  %15 = alloca i32, align 4
  %16 = alloca i32, align 4
  %17 = alloca i32, align 4
  %18 = alloca i32, align 4
  %19 = alloca ptr, align 8
  %20 = alloca i32, align 4
  store ptr %0, ptr %10, align 8, !tbaa !3
  store i32 %1, ptr %11, align 4, !tbaa !12
  store ptr %2, ptr %12, align 8, !tbaa !14
  store ptr %3, ptr %13, align 8, !tbaa !14
  store i8 %4, ptr %14, align 1, !tbaa !16
  store i32 %5, ptr %15, align 4, !tbaa !12
  store i32 %6, ptr %16, align 4, !tbaa !12
  store i32 %7, ptr %17, align 4, !tbaa !12
  store i32 %8, ptr %18, align 4, !tbaa !12
  %21 = load ptr, ptr %10, align 8
  %22 = getelementptr inbounds nuw %"class.arrow::internal::FloatToStringFormatter", ptr %21, i32 0, i32 0
  %23 = call noalias noundef nonnull ptr @_Znwm(i64 noundef 48) #8
  %24 = load i32, ptr %11, align 4, !tbaa !12
  %25 = load ptr, ptr %12, align 8, !tbaa !14
  %26 = load ptr, ptr %13, align 8, !tbaa !14
  %27 = load i8, ptr %14, align 1, !tbaa !16
  %28 = load i32, ptr %15, align 4, !tbaa !12
  %29 = load i32, ptr %16, align 4, !tbaa !12
  %30 = load i32, ptr %17, align 4, !tbaa !12
  %31 = load i32, ptr %18, align 4, !tbaa !12
  invoke void @_ZN5arrow8internal22FloatToStringFormatter4ImplC2EiPKcS4_ciiii(ptr noundef nonnull align 8 dereferenceable(48) %23, i32 noundef %24, ptr noundef %25, ptr noundef %26, i8 noundef signext %27, i32 noundef %28, i32 noundef %29, i32 noundef %30, i32 noundef %31)
          to label %32 unwind label %33

32:                                               ; preds = %9
  call void @_ZNSt10unique_ptrIN5arrow8internal22FloatToStringFormatter4ImplESt14default_deleteIS3_EEC2IS5_vEEPS3_(ptr noundef nonnull align 8 dereferenceable(8) %22, ptr noundef %23) #9
  ret void

33:                                               ; preds = %9
  %34 = landingpad { ptr, i32 }
          cleanup
  %35 = extractvalue { ptr, i32 } %34, 0
  store ptr %35, ptr %19, align 8
  %36 = extractvalue { ptr, i32 } %34, 1
  store i32 %36, ptr %20, align 4
  call void @_ZdlPvm(ptr noundef %23, i64 noundef 48) #10
  br label %37

37:                                               ; preds = %33
  %38 = load ptr, ptr %19, align 8
  %39 = load i32, ptr %20, align 4
  %40 = insertvalue { ptr, i32 } poison, ptr %38, 0
  %41 = insertvalue { ptr, i32 } %40, i32 %39, 1
  resume { ptr, i32 } %41
}