; Function Attrs: mustprogress uwtable
define void @_ZN5arrow8internal22FloatToStringFormatterC2EiPKcS3_ciiii(ptr noundef nonnull writeonly align 8 captures(none) dereferenceable(8) initializes((0, 8)) %0, i32 noundef %1, ptr noundef %2, ptr noundef %3, i8 noundef signext %4, i32 noundef %5, i32 noundef %6, i32 noundef %7, i32 noundef %8) unnamed_addr #0 align 2 personality ptr @__gxx_personality_v0 {
  %10 = tail call noalias noundef nonnull dereferenceable(48) ptr @_Znwm(i64 noundef 48) #6
  store i32 %1, ptr %10, align 8, !tbaa !3
  %11 = getelementptr inbounds nuw i8, ptr %10, i64 8
  store ptr %2, ptr %11, align 8, !tbaa !10
  %12 = getelementptr inbounds nuw i8, ptr %10, i64 16
  store ptr %3, ptr %12, align 8, !tbaa !11
  %13 = getelementptr inbounds nuw i8, ptr %10, i64 24
  store i8 %4, ptr %13, align 8, !tbaa !12
  %14 = getelementptr inbounds nuw i8, ptr %10, i64 28
  store i32 %5, ptr %14, align 4, !tbaa !13
  %15 = getelementptr inbounds nuw i8, ptr %10, i64 32
  store i32 %6, ptr %15, align 8, !tbaa !14
  %16 = getelementptr inbounds nuw i8, ptr %10, i64 36
  store i32 %7, ptr %16, align 4, !tbaa !15
  %17 = getelementptr inbounds nuw i8, ptr %10, i64 40
  store i32 %8, ptr %17, align 8, !tbaa !16
  %18 = getelementptr inbounds nuw i8, ptr %10, i64 44
  store i32 0, ptr %18, align 4, !tbaa !17
  store ptr %10, ptr %0, align 8, !tbaa !18
  ret void
}